; ModuleID = '49/797.c'
source_filename = "49/797.c"
target datalayout = "e-m:e-p270:32:32-p271:32:32-p272:64:64-i64:64-f80:128-n8:16:32:64-S128"
target triple = "x86_64-pc-linux-gnu"

@.str = private unnamed_addr constant [3 x i8] c"%c\00", align 1
@.str.1 = private unnamed_addr constant [4 x i8] c"%s\0A\00", align 1

; Function Attrs: noinline nounwind uwtable
define dso_local i32 @main() #0 {
  %1 = alloca i32, align 4
  %2 = alloca [100 x i8], align 16
  %3 = alloca [50 x [50 x i8]], align 16
  %4 = alloca [50 x i8], align 16
  %5 = alloca i32, align 4
  %6 = alloca i32, align 4
  %7 = alloca i32, align 4
  %8 = alloca i32, align 4
  %9 = alloca i32, align 4
  %10 = alloca i32, align 4
  store i32 0, i32* %1, align 4
  store i32 0, i32* %10, align 4
  store i32 0, i32* %5, align 4
  br label %11

11:                                               ; preds = %24, %0
  %12 = load i32, i32* %5, align 4
  %13 = sext i32 %12 to i64
  %14 = getelementptr inbounds [100 x i8], [100 x i8]* %2, i64 0, i64 %13
  %15 = call i32 (i8*, ...) @__isoc99_scanf(i8* getelementptr inbounds ([3 x i8], [3 x i8]* @.str, i64 0, i64 0), i8* %14)
  %16 = load i32, i32* %5, align 4
  %17 = sext i32 %16 to i64
  %18 = getelementptr inbounds [100 x i8], [100 x i8]* %2, i64 0, i64 %17
  %19 = load i8, i8* %18, align 1
  %20 = sext i8 %19 to i32
  %21 = icmp eq i32 %20, 10
  br i1 %21, label %22, label %23

22:                                               ; preds = %11
  br label %27

23:                                               ; preds = %11
  br label %24

24:                                               ; preds = %23
  %25 = load i32, i32* %5, align 4
  %26 = add nsw i32 %25, 1
  store i32 %26, i32* %5, align 4
  br label %11

27:                                               ; preds = %22
  store i32 0, i32* %6, align 4
  br label %28

28:                                               ; preds = %108, %27
  %29 = load i32, i32* %6, align 4
  %30 = load i32, i32* %5, align 4
  %31 = icmp slt i32 %29, %30
  br i1 %31, label %32, label %111

32:                                               ; preds = %28
  %33 = load i32, i32* %6, align 4
  %34 = add nsw i32 %33, 1
  store i32 %34, i32* %7, align 4
  br label %35

35:                                               ; preds = %104, %32
  %36 = load i32, i32* %7, align 4
  %37 = load i32, i32* %5, align 4
  %38 = icmp sle i32 %36, %37
  br i1 %38, label %39, label %107

39:                                               ; preds = %35
  store i32 0, i32* %9, align 4
  %40 = load i32, i32* %6, align 4
  store i32 %40, i32* %8, align 4
  br label %41

41:                                               ; preds = %63, %39
  %42 = load i32, i32* %8, align 4
  %43 = load i32, i32* %7, align 4
  %44 = icmp sle i32 %42, %43
  br i1 %44, label %45, label %66

45:                                               ; preds = %41
  %46 = load i32, i32* %8, align 4
  %47 = sext i32 %46 to i64
  %48 = getelementptr inbounds [100 x i8], [100 x i8]* %2, i64 0, i64 %47
  %49 = load i8, i8* %48, align 1
  %50 = sext i8 %49 to i32
  %51 = load i32, i32* %7, align 4
  %52 = load i32, i32* %6, align 4
  %53 = add nsw i32 %51, %52
  %54 = load i32, i32* %8, align 4
  %55 = sub nsw i32 %53, %54
  %56 = sext i32 %55 to i64
  %57 = getelementptr inbounds [100 x i8], [100 x i8]* %2, i64 0, i64 %56
  %58 = load i8, i8* %57, align 1
  %59 = sext i8 %58 to i32
  %60 = icmp ne i32 %50, %59
  br i1 %60, label %61, label %62

61:                                               ; preds = %45
  store i32 1, i32* %9, align 4
  br label %66

62:                                               ; preds = %45
  br label %63

63:                                               ; preds = %62
  %64 = load i32, i32* %8, align 4
  %65 = add nsw i32 %64, 1
  store i32 %65, i32* %8, align 4
  br label %41

66:                                               ; preds = %61, %41
  %67 = load i32, i32* %9, align 4
  %68 = icmp eq i32 %67, 0
  br i1 %68, label %69, label %103

69:                                               ; preds = %66
  %70 = load i32, i32* %6, align 4
  store i32 %70, i32* %9, align 4
  br label %71

71:                                               ; preds = %88, %69
  %72 = load i32, i32* %9, align 4
  %73 = load i32, i32* %7, align 4
  %74 = icmp sle i32 %72, %73
  br i1 %74, label %75, label %91

75:                                               ; preds = %71
  %76 = load i32, i32* %9, align 4
  %77 = sext i32 %76 to i64
  %78 = getelementptr inbounds [100 x i8], [100 x i8]* %2, i64 0, i64 %77
  %79 = load i8, i8* %78, align 1
  %80 = load i32, i32* %10, align 4
  %81 = sext i32 %80 to i64
  %82 = getelementptr inbounds [50 x [50 x i8]], [50 x [50 x i8]]* %3, i64 0, i64 %81
  %83 = load i32, i32* %9, align 4
  %84 = load i32, i32* %6, align 4
  %85 = sub nsw i32 %83, %84
  %86 = sext i32 %85 to i64
  %87 = getelementptr inbounds [50 x i8], [50 x i8]* %82, i64 0, i64 %86
  store i8 %79, i8* %87, align 1
  br label %88

88:                                               ; preds = %75
  %89 = load i32, i32* %9, align 4
  %90 = add nsw i32 %89, 1
  store i32 %90, i32* %9, align 4
  br label %71

91:                                               ; preds = %71
  %92 = load i32, i32* %10, align 4
  %93 = sext i32 %92 to i64
  %94 = getelementptr inbounds [50 x [50 x i8]], [50 x [50 x i8]]* %3, i64 0, i64 %93
  %95 = load i32, i32* %7, align 4
  %96 = load i32, i32* %6, align 4
  %97 = sub nsw i32 %95, %96
  %98 = add nsw i32 %97, 1
  %99 = sext i32 %98 to i64
  %100 = getelementptr inbounds [50 x i8], [50 x i8]* %94, i64 0, i64 %99
  store i8 0, i8* %100, align 1
  %101 = load i32, i32* %10, align 4
  %102 = add nsw i32 %101, 1
  store i32 %102, i32* %10, align 4
  br label %103

103:                                              ; preds = %91, %66
  br label %104

104:                                              ; preds = %103
  %105 = load i32, i32* %7, align 4
  %106 = add nsw i32 %105, 1
  store i32 %106, i32* %7, align 4
  br label %35

107:                                              ; preds = %35
  br label %108

108:                                              ; preds = %107
  %109 = load i32, i32* %6, align 4
  %110 = add nsw i32 %109, 1
  store i32 %110, i32* %6, align 4
  br label %28

111:                                              ; preds = %28
  store i32 2, i32* %5, align 4
  br label %112

112:                                              ; preds = %140, %111
  %113 = load i32, i32* %5, align 4
  %114 = icmp slt i32 %113, 100
  br i1 %114, label %115, label %143

115:                                              ; preds = %112
  store i32 0, i32* %6, align 4
  br label %116

116:                                              ; preds = %136, %115
  %117 = load i32, i32* %6, align 4
  %118 = load i32, i32* %10, align 4
  %119 = icmp slt i32 %117, %118
  br i1 %119, label %120, label %139

120:                                              ; preds = %116
  %121 = load i32, i32* %6, align 4
  %122 = sext i32 %121 to i64
  %123 = getelementptr inbounds [50 x [50 x i8]], [50 x [50 x i8]]* %3, i64 0, i64 %122
  %124 = getelementptr inbounds [50 x i8], [50 x i8]* %123, i64 0, i64 0
  %125 = call i64 @strlen(i8* %124) #3
  %126 = load i32, i32* %5, align 4
  %127 = sext i32 %126 to i64
  %128 = icmp eq i64 %125, %127
  br i1 %128, label %129, label %135

129:                                              ; preds = %120
  %130 = load i32, i32* %6, align 4
  %131 = sext i32 %130 to i64
  %132 = getelementptr inbounds [50 x [50 x i8]], [50 x [50 x i8]]* %3, i64 0, i64 %131
  %133 = getelementptr inbounds [50 x i8], [50 x i8]* %132, i64 0, i64 0
  %134 = call i32 (i8*, ...) @printf(i8* getelementptr inbounds ([4 x i8], [4 x i8]* @.str.1, i64 0, i64 0), i8* %133)
  br label %135

135:                                              ; preds = %129, %120
  br label %136

136:                                              ; preds = %135
  %137 = load i32, i32* %6, align 4
  %138 = add nsw i32 %137, 1
  store i32 %138, i32* %6, align 4
  br label %116

139:                                              ; preds = %116
  br label %140

140:                                              ; preds = %139
  %141 = load i32, i32* %5, align 4
  %142 = add nsw i32 %141, 1
  store i32 %142, i32* %5, align 4
  br label %112

143:                                              ; preds = %112
  ret i32 0
}

declare dso_local i32 @__isoc99_scanf(i8*, ...) #1

; Function Attrs: nounwind readonly
declare dso_local i64 @strlen(i8*) #2

declare dso_local i32 @printf(i8*, ...) #1


!llvm.module.flags = !{!0}
!llvm.ident = !{!1}

!0 = !{i32 1, !"wchar_size", i32 4}
!1 = !{!"clang version 10.0.0-4ubuntu1 "}
